target datalayout = "e-m:e-p270:32:32-p271:32:32-p272:64:64-i64:64-i128:128-f80:128-n8:16:32:64-S128"
target triple = "x86_64-pc-linux-gnu"

%struct.QListData = type { ptr }
%class.QObject = type { ptr, %class.QScopedPointer }
%class.QScopedPointer = type { ptr }
%class.QString = type { ptr }
%class.MainWindow = type { %class.QMainWindow, %class.MainWindowSetting, %class.QNetworkAccessManager, i32, i32, i8, ptr, ptr, ptr, ptr, ptr, ptr, %class.RichParameterList, ptr, %class.QByteArray, %class.QDir, ptr, ptr, ptr, ptr, ptr, ptr, ptr, ptr, ptr, ptr, ptr, ptr, ptr, ptr, ptr, ptr, ptr, ptr, ptr, ptr, ptr, ptr, ptr, ptr, ptr, ptr, ptr, ptr, ptr, ptr, ptr, ptr, ptr, ptr, ptr, ptr, ptr, ptr, ptr, ptr, ptr, ptr, ptr, ptr, ptr, ptr, ptr, ptr, ptr, ptr, ptr, ptr, ptr, ptr, ptr, ptr, ptr, ptr, [9 x ptr], [9 x ptr], ptr, ptr, ptr, ptr, ptr, ptr, ptr, ptr, ptr, ptr, ptr, ptr, ptr, ptr, ptr, ptr, ptr, ptr, ptr, ptr, ptr, ptr, ptr, ptr, ptr, ptr, ptr, ptr, ptr, ptr, ptr, ptr, ptr, ptr, ptr, ptr, ptr, ptr, ptr, ptr, ptr, ptr, ptr, ptr, ptr, ptr, ptr, ptr, ptr, ptr, ptr, ptr, ptr, ptr, ptr, ptr, ptr, ptr, ptr, ptr, ptr, ptr, ptr, ptr, ptr, ptr }
%class.QMainWindow = type { %class.QWidget }
%class.QWidget = type { %class.QObject, %class.QPaintDevice, ptr }
%class.QPaintDevice = type { ptr, i16, ptr }
%class.MainWindowSetting = type <{ i64, i8, [7 x i8], i64, i64, i64, i32, i32, %class.QString, i8, i8, [6 x i8] }>
%class.QNetworkAccessManager = type { %class.QObject }
%class.RichParameterList = type { %"class.std::__cxx11::list" }
%"class.std::__cxx11::list" = type { %"class.std::__cxx11::_List_base" }
%"class.std::__cxx11::_List_base" = type { %"struct.std::__cxx11::_List_base<RichParameter *, std::allocator<RichParameter *>>::_List_impl" }
%"struct.std::__cxx11::_List_base<RichParameter *, std::allocator<RichParameter *>>::_List_impl" = type { %"struct.std::__detail::_List_node_header" }
%"struct.std::__detail::_List_node_header" = type { %"struct.std::__detail::_List_node_base", i64 }
%"struct.std::__detail::_List_node_base" = type { ptr, ptr }
%class.QByteArray = type { ptr }
%class.QDir = type { %class.QSharedDataPointer }
%class.QSharedDataPointer = type { ptr }
%class.MultiViewer_Container = type { %class.Splitter, %class.MeshDocument, ptr, i32, ptr, %class.QList.45 }
%class.Splitter = type { %class.QSplitter }
%class.QSplitter = type { %class.QFrame }
%class.QFrame = type { %class.QWidget }
%class.MeshDocument = type { %class.QObject, %class.GLLogStream, %class.FilterScript, %"class.std::__cxx11::list.32", %"class.std::__cxx11::list.37", i32, i32, %class.QString, %class.QString, %class.MeshDocumentStateData, i8, ptr, ptr }
%class.GLLogStream = type { %class.QObject, i32, %class.QList.26, %class.QMultiMap }
%class.QList.26 = type { %union.anon.28 }
%union.anon.28 = type { %struct.QListData }
%class.QMultiMap = type { %class.QMap }
%class.QMap = type { ptr }
%class.FilterScript = type { %class.QObject, %class.QList.29 }
%class.QList.29 = type { %union.anon.31 }
%union.anon.31 = type { %struct.QListData }
%"class.std::__cxx11::list.32" = type { %"class.std::__cxx11::_List_base.33" }
%"class.std::__cxx11::_List_base.33" = type { %"struct.std::__cxx11::_List_base<MeshModel, std::allocator<MeshModel>>::_List_impl" }
%"struct.std::__cxx11::_List_base<MeshModel, std::allocator<MeshModel>>::_List_impl" = type { %"struct.std::__detail::_List_node_header" }
%"class.std::__cxx11::list.37" = type { %"class.std::__cxx11::_List_base.38" }
%"class.std::__cxx11::_List_base.38" = type { %"struct.std::__cxx11::_List_base<RasterModel, std::allocator<RasterModel>>::_List_impl" }
%"struct.std::__cxx11::_List_base<RasterModel, std::allocator<RasterModel>>::_List_impl" = type { %"struct.std::__detail::_List_node_header" }
%class.MeshDocumentStateData = type { %class.QReadWriteLock, %class.QMap.44 }
%class.QReadWriteLock = type { %class.QAtomicPointer }
%class.QAtomicPointer = type { %class.QBasicAtomicPointer }
%class.QBasicAtomicPointer = type { %"struct.std::atomic.42" }
%"struct.std::atomic.42" = type { %"struct.std::__atomic_base.43" }
%"struct.std::__atomic_base.43" = type { ptr }
%class.QMap.44 = type { ptr }
%class.QList.45 = type { %union.anon.47 }
%union.anon.47 = type { %struct.QListData }

; Function Attrs: mustprogress nounwind uwtable
define linkonce_odr noundef ptr @_ZNK10MainWindow20currentViewContainerEv(ptr noundef nonnull align 8 dereferenceable(1376) %0) #4 comdat align 2 {
  %2 = alloca ptr, align 8
  store ptr %0, ptr %2, align 8
  %3 = load ptr, ptr %2, align 8
  %4 = getelementptr inbounds %class.MainWindow, ptr %3, i32 0, i32 141
  %5 = load ptr, ptr %4, align 8
  ret ptr %5
}

; Function Attrs: mustprogress nounwind uwtable
define linkonce_odr noundef ptr @_ZNK10MainWindow3GLAEv(ptr noundef nonnull align 8 dereferenceable(1376) %0) #4 comdat align 2 {
  %2 = alloca ptr, align 8
  %3 = alloca ptr, align 8
  %4 = alloca ptr, align 8
  store ptr %0, ptr %3, align 8
  %5 = load ptr, ptr %3, align 8
  %6 = call noundef ptr @_ZNK10MainWindow20currentViewContainerEv(ptr noundef nonnull align 8 dereferenceable(1376) %5)
  store ptr %6, ptr %4, align 8
  %7 = load ptr, ptr %4, align 8
  %8 = icmp ne ptr %7, null
  br i1 %8, label %10, label %9

9:                                                ; preds = %1
  store ptr null, ptr %2, align 8
  br label %14

10:                                               ; preds = %1
  %11 = load ptr, ptr %4, align 8
  %12 = getelementptr inbounds %class.MultiViewer_Container, ptr %11, i32 0, i32 4
  %13 = load ptr, ptr %12, align 8
  store ptr %13, ptr %2, align 8
  br label %14

14:                                               ; preds = %10, %9
  %15 = load ptr, ptr %2, align 8
  ret ptr %15
}

; Function Attrs: mustprogress uwtable
define void @_ZN10MainWindow8viewFromEP7QAction(ptr noundef nonnull align 8 dereferenceable(1376) %0, ptr noundef %1) #5 align 2 personality ptr @__gxx_personality_v0 {
  %3 = alloca ptr, align 8
  %4 = alloca ptr, align 8
  %5 = alloca %class.QString, align 8
  %6 = alloca ptr, align 8
  %7 = alloca i32, align 4
  store ptr %0, ptr %3, align 8
  store ptr %1, ptr %4, align 8
  %8 = load ptr, ptr %3, align 8
  %9 = call noundef ptr @_ZNK10MainWindow3GLAEv(ptr noundef nonnull align 8 dereferenceable(1376) %8)
  %10 = icmp ne ptr %9, null
  br i1 %10, label %11, label %19

11:                                               ; preds = %2
  %12 = call noundef ptr @_ZNK10MainWindow3GLAEv(ptr noundef nonnull align 8 dereferenceable(1376) %8)
  %13 = load ptr, ptr %4, align 8
  call void @_ZNK7QAction4textEv(ptr dead_on_unwind writable sret(%class.QString) align 8 %5, ptr noundef nonnull align 8 dereferenceable(16) %13)
  invoke void @_ZN6GLArea15createOrthoViewE7QString(ptr noundef nonnull align 8 dereferenceable(1676) %12, ptr noundef %5)
          to label %14 unwind label %15

14:                                               ; preds = %11
  call void @_ZN7QStringD2Ev(ptr noundef nonnull align 8 dereferenceable(8) %5) #3
  br label %19

15:                                               ; preds = %11
  %16 = landingpad { ptr, i32 }
          cleanup
  %17 = extractvalue { ptr, i32 } %16, 0
  store ptr %17, ptr %6, align 8
  %18 = extractvalue { ptr, i32 } %16, 1
  store i32 %18, ptr %7, align 4
  call void @_ZN7QStringD2Ev(ptr noundef nonnull align 8 dereferenceable(8) %5) #3
  br label %20

19:                                               ; preds = %14, %2
  ret void

20:                                               ; preds = %15
  %21 = load ptr, ptr %6, align 8
  %22 = load i32, ptr %7, align 4
  %23 = insertvalue { ptr, i32 } poison, ptr %21, 0
  %24 = insertvalue { ptr, i32 } %23, i32 %22, 1
  resume { ptr, i32 } %24
}